target datalayout = "e-m:e-p270:32:32-p271:32:32-p272:64:64-i64:64-i128:128-f80:128-n8:16:32:64-S128"
target triple = "x86_64-pc-linux-gnu"

%struct.FunctionCallInfoBaseData = type { ptr, ptr, ptr, i32, i8, i16, [0 x %struct.NullableDatum] }
%struct.NullableDatum = type { i64, i8 }
%struct.MultirangeIOData = type { ptr, %struct.FmgrInfo, i32 }
%struct.FmgrInfo = type { ptr, i32, i16, i8, i8, i8, ptr, ptr, ptr }
%struct.TypeCacheEntry = type { i32, i32, i16, i8, i8, i8, i8, i32, i32, i32, i32, i32, i32, i32, i32, i32, i32, i32, i32, i32, i32, %struct.FmgrInfo, %struct.FmgrInfo, %struct.FmgrInfo, %struct.FmgrInfo, ptr, i64, ptr, i32, i32, %struct.FmgrInfo, %struct.FmgrInfo, %struct.FmgrInfo, ptr, i32, i32, ptr, i32, ptr, ptr }

@.str.2 = private unnamed_addr constant [18 x i8] c"multirangetypes.c\00", align 1
@.str.9 = private unnamed_addr constant [33 x i8] c"type %u is not a multirange type\00", align 1
@__func__.get_multirange_io_data = private unnamed_addr constant [23 x i8] c"get_multirange_io_data\00", align 1
@.str.23 = private unnamed_addr constant [47 x i8] c"no binary input function available for type %s\00", align 1
@.str.24 = private unnamed_addr constant [48 x i8] c"no binary output function available for type %s\00", align 1

; Function Attrs: nounwind uwtable
define internal ptr @get_multirange_io_data(ptr noundef %0, i32 noundef %1, i32 noundef %2) #0 {
  %4 = alloca ptr, align 8
  %5 = alloca i32, align 4
  %6 = alloca i32, align 4
  %7 = alloca ptr, align 8
  %8 = alloca i32, align 4
  %9 = alloca i16, align 2
  %10 = alloca i8, align 1
  %11 = alloca i8, align 1
  %12 = alloca i8, align 1
  store ptr %0, ptr %4, align 8
  store i32 %1, ptr %5, align 4
  store i32 %2, ptr %6, align 4
  call void @llvm.lifetime.start.p0(i64 8, ptr %7) #9
  %13 = load ptr, ptr %4, align 8
  %14 = getelementptr inbounds nuw %struct.FunctionCallInfoBaseData, ptr %13, i32 0, i32 0
  %15 = load ptr, ptr %14, align 8
  %16 = getelementptr inbounds nuw %struct.FmgrInfo, ptr %15, i32 0, i32 6
  %17 = load ptr, ptr %16, align 8
  store ptr %17, ptr %7, align 8
  %18 = load ptr, ptr %7, align 8
  %19 = icmp eq ptr %18, null
  br i1 %19, label %28, label %20

20:                                               ; preds = %3
  %21 = load ptr, ptr %7, align 8
  %22 = getelementptr inbounds nuw %struct.MultirangeIOData, ptr %21, i32 0, i32 0
  %23 = load ptr, ptr %22, align 8
  %24 = getelementptr inbounds nuw %struct.TypeCacheEntry, ptr %23, i32 0, i32 0
  %25 = load i32, ptr %24, align 8
  %26 = load i32, ptr %5, align 4
  %27 = icmp ne i32 %25, %26
  br i1 %27, label %28, label %128

28:                                               ; preds = %20, %3
  call void @llvm.lifetime.start.p0(i64 4, ptr %8) #9
  call void @llvm.lifetime.start.p0(i64 2, ptr %9) #9
  call void @llvm.lifetime.start.p0(i64 1, ptr %10) #9
  call void @llvm.lifetime.start.p0(i64 1, ptr %11) #9
  call void @llvm.lifetime.start.p0(i64 1, ptr %12) #9
  %29 = load ptr, ptr %4, align 8
  %30 = getelementptr inbounds nuw %struct.FunctionCallInfoBaseData, ptr %29, i32 0, i32 0
  %31 = load ptr, ptr %30, align 8
  %32 = getelementptr inbounds nuw %struct.FmgrInfo, ptr %31, i32 0, i32 7
  %33 = load ptr, ptr %32, align 8
  %34 = call ptr @MemoryContextAlloc(ptr noundef %33, i64 noundef 64)
  store ptr %34, ptr %7, align 8
  %35 = load i32, ptr %5, align 4
  %36 = call ptr @lookup_type_cache(i32 noundef %35, i32 noundef 65536)
  %37 = load ptr, ptr %7, align 8
  %38 = getelementptr inbounds nuw %struct.MultirangeIOData, ptr %37, i32 0, i32 0
  store ptr %36, ptr %38, align 8
  %39 = load ptr, ptr %7, align 8
  %40 = getelementptr inbounds nuw %struct.MultirangeIOData, ptr %39, i32 0, i32 0
  %41 = load ptr, ptr %40, align 8
  %42 = getelementptr inbounds nuw %struct.TypeCacheEntry, ptr %41, i32 0, i32 33
  %43 = load ptr, ptr %42, align 8
  %44 = icmp eq ptr %43, null
  br i1 %44, label %45, label %57

45:                                               ; preds = %28
  br label %46

46:                                               ; preds = %45
  br i1 true, label %47, label %49

47:                                               ; preds = %46
  %48 = call zeroext i1 @errstart_cold(i32 noundef 21, ptr noundef null) #11
  br i1 %48, label %51, label %54

49:                                               ; preds = %46
  %50 = call zeroext i1 @errstart(i32 noundef 21, ptr noundef null)
  br i1 %50, label %51, label %54

51:                                               ; preds = %49, %47
  %52 = load i32, ptr %5, align 4
  %53 = call i32 (ptr, ...) @errmsg_internal(ptr noundef @.str.9, i32 noundef %52)
  call void @errfinish(ptr noundef @.str.2, i32 noundef 432, ptr noundef @__func__.get_multirange_io_data)
  br label %54

54:                                               ; preds = %51, %49, %47
  unreachable

55:                                               ; No predecessors!
  br label %56

56:                                               ; preds = %55
  br label %57

57:                                               ; preds = %56, %28
  %58 = load ptr, ptr %7, align 8
  %59 = getelementptr inbounds nuw %struct.MultirangeIOData, ptr %58, i32 0, i32 0
  %60 = load ptr, ptr %59, align 8
  %61 = getelementptr inbounds nuw %struct.TypeCacheEntry, ptr %60, i32 0, i32 33
  %62 = load ptr, ptr %61, align 8
  %63 = getelementptr inbounds nuw %struct.TypeCacheEntry, ptr %62, i32 0, i32 0
  %64 = load i32, ptr %63, align 8
  %65 = load i32, ptr %6, align 4
  %66 = load ptr, ptr %7, align 8
  %67 = getelementptr inbounds nuw %struct.MultirangeIOData, ptr %66, i32 0, i32 2
  call void @get_type_io_data(i32 noundef %64, i32 noundef %65, ptr noundef %9, ptr noundef %10, ptr noundef %11, ptr noundef %12, ptr noundef %67, ptr noundef %8)
  %68 = load i32, ptr %8, align 4
  %69 = icmp ne i32 %68, 0
  br i1 %69, label %114, label %70

70:                                               ; preds = %57
  %71 = load i32, ptr %6, align 4
  %72 = icmp eq i32 %71, 2
  br i1 %72, label %73, label %93

73:                                               ; preds = %70
  br label %74

74:                                               ; preds = %73
  br i1 true, label %75, label %77

75:                                               ; preds = %74
  %76 = call zeroext i1 @errstart_cold(i32 noundef 21, ptr noundef null) #11
  br i1 %76, label %79, label %90

77:                                               ; preds = %74
  %78 = call zeroext i1 @errstart(i32 noundef 21, ptr noundef null)
  br i1 %78, label %79, label %90

79:                                               ; preds = %77, %75
  %80 = call i32 @errcode(i32 noundef 52461700)
  %81 = load ptr, ptr %7, align 8
  %82 = getelementptr inbounds nuw %struct.MultirangeIOData, ptr %81, i32 0, i32 0
  %83 = load ptr, ptr %82, align 8
  %84 = getelementptr inbounds nuw %struct.TypeCacheEntry, ptr %83, i32 0, i32 33
  %85 = load ptr, ptr %84, align 8
  %86 = getelementptr inbounds nuw %struct.TypeCacheEntry, ptr %85, i32 0, i32 0
  %87 = load i32, ptr %86, align 8
  %88 = call ptr @format_type_be(i32 noundef %87)
  %89 = call i32 (ptr, ...) @errmsg(ptr noundef @.str.23, ptr noundef %88)
  call void @errfinish(ptr noundef @.str.2, i32 noundef 451, ptr noundef @__func__.get_multirange_io_data)
  br label %90

90:                                               ; preds = %79, %77, %75
  unreachable

91:                                               ; No predecessors!
  br label %92

92:                                               ; preds = %91
  br label %113

93:                                               ; preds = %70
  br label %94

94:                                               ; preds = %93
  br i1 true, label %95, label %97

95:                                               ; preds = %94
  %96 = call zeroext i1 @errstart_cold(i32 noundef 21, ptr noundef null) #11
  br i1 %96, label %99, label %110

97:                                               ; preds = %94
  %98 = call zeroext i1 @errstart(i32 noundef 21, ptr noundef null)
  br i1 %98, label %99, label %110

99:                                               ; preds = %97, %95
  %100 = call i32 @errcode(i32 noundef 52461700)
  %101 = load ptr, ptr %7, align 8
  %102 = getelementptr inbounds nuw %struct.MultirangeIOData, ptr %101, i32 0, i32 0
  %103 = load ptr, ptr %102, align 8
  %104 = getelementptr inbounds nuw %struct.TypeCacheEntry, ptr %103, i32 0, i32 33
  %105 = load ptr, ptr %104, align 8
  %106 = getelementptr inbounds nuw %struct.TypeCacheEntry, ptr %105, i32 0, i32 0
  %107 = load i32, ptr %106, align 8
  %108 = call ptr @format_type_be(i32 noundef %107)
  %109 = call i32 (ptr, ...) @errmsg(ptr noundef @.str.24, ptr noundef %108)
  call void @errfinish(ptr noundef @.str.2, i32 noundef 456, ptr noundef @__func__.get_multirange_io_data)
  br label %110

110:                                              ; preds = %99, %97, %95
  unreachable

111:                                              ; No predecessors!
  br label %112

112:                                              ; preds = %111
  br label %113

113:                                              ; preds = %112, %92
  br label %114

114:                                              ; preds = %113, %57
  %115 = load i32, ptr %8, align 4
  %116 = load ptr, ptr %7, align 8
  %117 = getelementptr inbounds nuw %struct.MultirangeIOData, ptr %116, i32 0, i32 1
  %118 = load ptr, ptr %4, align 8
  %119 = getelementptr inbounds nuw %struct.FunctionCallInfoBaseData, ptr %118, i32 0, i32 0
  %120 = load ptr, ptr %119, align 8
  %121 = getelementptr inbounds nuw %struct.FmgrInfo, ptr %120, i32 0, i32 7
  %122 = load ptr, ptr %121, align 8
  call void @fmgr_info_cxt(i32 noundef %115, ptr noundef %117, ptr noundef %122)
  %123 = load ptr, ptr %7, align 8
  %124 = load ptr, ptr %4, align 8
  %125 = getelementptr inbounds nuw %struct.FunctionCallInfoBaseData, ptr %124, i32 0, i32 0
  %126 = load ptr, ptr %125, align 8
  %127 = getelementptr inbounds nuw %struct.FmgrInfo, ptr %126, i32 0, i32 6
  store ptr %123, ptr %127, align 8
  call void @llvm.lifetime.end.p0(i64 1, ptr %12) #9
  call void @llvm.lifetime.end.p0(i64 1, ptr %11) #9
  call void @llvm.lifetime.end.p0(i64 1, ptr %10) #9
  call void @llvm.lifetime.end.p0(i64 2, ptr %9) #9
  call void @llvm.lifetime.end.p0(i64 4, ptr %8) #9
  br label %128

128:                                              ; preds = %114, %20
  %129 = load ptr, ptr %7, align 8
  call void @llvm.lifetime.end.p0(i64 8, ptr %7) #9
  ret ptr %129
}